target datalayout = "e-m:e-p270:32:32-p271:32:32-p272:64:64-i64:64-i128:128-f80:128-n8:16:32:64-S128"
target triple = "x86_64-unknown-linux-gnu"

%class.b3Vector3 = type { %union.anon }
%union.anon = type { [4 x float] }
%class.b3PgsJacobiSolver = type { ptr, %class.b3AlignedObjectArray, %class.b3AlignedObjectArray.0, %class.b3AlignedObjectArray.0, %class.b3AlignedObjectArray.0, %class.b3AlignedObjectArray.0, %class.b3AlignedObjectArray.4, %class.b3AlignedObjectArray.4, %class.b3AlignedObjectArray.4, %class.b3AlignedObjectArray.8, %class.b3AlignedObjectArray.4, %class.b3AlignedObjectArray.4, %class.b3AlignedObjectArray.12, %class.b3AlignedObjectArray.12, i8, i32, i32, i64 }
%class.b3AlignedObjectArray = type <{ %class.b3AlignedAllocator, [3 x i8], i32, i32, [4 x i8], ptr, i8, [7 x i8] }>
%class.b3AlignedAllocator = type { i8 }
%class.b3AlignedObjectArray.0 = type <{ %class.b3AlignedAllocator.1, [3 x i8], i32, i32, [4 x i8], ptr, i8, [7 x i8] }>
%class.b3AlignedAllocator.1 = type { i8 }
%class.b3AlignedObjectArray.8 = type <{ %class.b3AlignedAllocator.9, [3 x i8], i32, i32, [4 x i8], ptr, i8, [7 x i8] }>
%class.b3AlignedAllocator.9 = type { i8 }
%class.b3AlignedObjectArray.4 = type <{ %class.b3AlignedAllocator.5, [3 x i8], i32, i32, [4 x i8], ptr, i8, [7 x i8] }>
%class.b3AlignedAllocator.5 = type { i8 }
%class.b3AlignedObjectArray.12 = type <{ %class.b3AlignedAllocator.13, [3 x i8], i32, i32, [4 x i8], ptr, i8, [7 x i8] }>
%class.b3AlignedAllocator.13 = type { i8 }
%struct.b3ContactSolverInfoData = type { float, float, float, float, float, i32, float, float, float, float, float, i32, float, float, float, float, i32, i32, i32, float, float }
%struct.b3SolverConstraint = type { %class.b3Vector3, %class.b3Vector3, %class.b3Vector3, %class.b3Vector3, %class.b3Vector3, float, float, i32, i32, float, float, float, float, float, float, float, %union.anon.17, i32, i32, i32, i32, [8 x i8] }
%union.anon.17 = type { ptr }
%struct.b3SolverBody = type <{ %class.b3Transform, %class.b3Vector3, %class.b3Vector3, %class.b3Vector3, %class.b3Vector3, %class.b3Vector3, %class.b3Vector3, %class.b3Vector3, %class.b3Vector3, %class.b3Vector3, %union.anon.16, [3 x i32], [12 x i8] }>
%class.b3Transform = type { %class.b3Matrix3x3, %class.b3Vector3 }
%class.b3Matrix3x3 = type { [3 x %class.b3Vector3] }
%union.anon.16 = type { ptr }

; Function Attrs: mustprogress uwtable
define dso_local void @_ZN17b3PgsJacobiSolver27resolveSplitPenetrationSIMDER12b3SolverBodyS1_RK18b3SolverConstraint(ptr noundef nonnull align 8 dereferenceable(448) %this, ptr noundef nonnull align 16 dereferenceable(228) %body1, ptr noundef nonnull align 16 dereferenceable(228) %body2, ptr noundef nonnull align 16 dereferenceable(160) %c) #3 align 2 {
entry:
  %this.addr = alloca ptr, align 8
  %body1.addr = alloca ptr, align 8
  %body2.addr = alloca ptr, align 8
  %c.addr = alloca ptr, align 8
  store ptr %this, ptr %this.addr, align 8
  store ptr %body1, ptr %body1.addr, align 8
  store ptr %body2, ptr %body2.addr, align 8
  store ptr %c, ptr %c.addr, align 8
  %this1 = load ptr, ptr %this.addr, align 8
  %0 = load ptr, ptr %body1.addr, align 8
  %1 = load ptr, ptr %body2.addr, align 8
  %2 = load ptr, ptr %c.addr, align 8
  call void @_ZN17b3PgsJacobiSolver43resolveSplitPenetrationImpulseCacheFriendlyER12b3SolverBodyS1_RK18b3SolverConstraint(ptr noundef nonnull align 8 dereferenceable(448) %this1, ptr noundef nonnull align 16 dereferenceable(228) %0, ptr noundef nonnull align 16 dereferenceable(228) %1, ptr noundef nonnull align 16 dereferenceable(160) %2)
  ret void
}

; Function Attrs: mustprogress nounwind uwtable
define linkonce_odr dso_local noundef nonnull align 16 dereferenceable(228) ptr @_ZN20b3AlignedObjectArrayI12b3SolverBodyEixEi(ptr noundef nonnull align 8 dereferenceable(25) %this, i32 noundef %n) #1 comdat align 2 {
entry:
  %this.addr = alloca ptr, align 8
  %n.addr = alloca i32, align 4
  store ptr %this, ptr %this.addr, align 8
  store i32 %n, ptr %n.addr, align 4
  %this1 = load ptr, ptr %this.addr, align 8
  %m_data = getelementptr inbounds %class.b3AlignedObjectArray, ptr %this1, i32 0, i32 5
  %0 = load ptr, ptr %m_data, align 8
  %1 = load i32, ptr %n.addr, align 4
  %idxprom = sext i32 %1 to i64
  %arrayidx = getelementptr inbounds %struct.b3SolverBody, ptr %0, i64 %idxprom
  ret ptr %arrayidx
}

; Function Attrs: mustprogress nounwind uwtable
define linkonce_odr dso_local noundef nonnull align 16 dereferenceable(160) ptr @_ZN20b3AlignedObjectArrayI18b3SolverConstraintEixEi(ptr noundef nonnull align 8 dereferenceable(25) %this, i32 noundef %n) #1 comdat align 2 {
entry:
  %this.addr = alloca ptr, align 8
  %n.addr = alloca i32, align 4
  store ptr %this, ptr %this.addr, align 8
  store i32 %n, ptr %n.addr, align 4
  %this1 = load ptr, ptr %this.addr, align 8
  %m_data = getelementptr inbounds %class.b3AlignedObjectArray.0, ptr %this1, i32 0, i32 5
  %0 = load ptr, ptr %m_data, align 8
  %1 = load i32, ptr %n.addr, align 4
  %idxprom = sext i32 %1 to i64
  %arrayidx = getelementptr inbounds %struct.b3SolverConstraint, ptr %0, i64 %idxprom
  ret ptr %arrayidx
}

; Function Attrs: mustprogress nounwind uwtable
define linkonce_odr dso_local noundef nonnull align 4 dereferenceable(4) ptr @_ZN20b3AlignedObjectArrayIiEixEi(ptr noundef nonnull align 8 dereferenceable(25) %this, i32 noundef %n) #1 comdat align 2 {
entry:
  %this.addr = alloca ptr, align 8
  %n.addr = alloca i32, align 4
  store ptr %this, ptr %this.addr, align 8
  store i32 %n, ptr %n.addr, align 4
  %this1 = load ptr, ptr %this.addr, align 8
  %m_data = getelementptr inbounds %class.b3AlignedObjectArray.4, ptr %this1, i32 0, i32 5
  %0 = load ptr, ptr %m_data, align 8
  %1 = load i32, ptr %n.addr, align 4
  %idxprom = sext i32 %1 to i64
  %arrayidx = getelementptr inbounds i32, ptr %0, i64 %idxprom
  ret ptr %arrayidx
}

; Function Attrs: mustprogress nounwind uwtable
define linkonce_odr dso_local noundef i32 @_ZNK20b3AlignedObjectArrayI18b3SolverConstraintE4sizeEv(ptr noundef nonnull align 8 dereferenceable(25) %this) #1 comdat align 2 {
entry:
  %this.addr = alloca ptr, align 8
  store ptr %this, ptr %this.addr, align 8
  %this1 = load ptr, ptr %this.addr, align 8
  %m_size = getelementptr inbounds %class.b3AlignedObjectArray.0, ptr %this1, i32 0, i32 2
  %0 = load i32, ptr %m_size, align 4
  ret i32 %0
}

; Function Attrs: mustprogress uwtable
define dso_local void @_ZN17b3PgsJacobiSolver45solveGroupCacheFriendlySplitImpulseIterationsEPP17b3TypedConstraintiRK19b3ContactSolverInfo(ptr noundef nonnull align 8 dereferenceable(448) %this, ptr noundef %constraints, i32 noundef %numConstraints, ptr noundef nonnull align 4 dereferenceable(84) %infoGlobal) unnamed_addr #3 align 2 {
entry:
  %this.addr = alloca ptr, align 8
  %constraints.addr = alloca ptr, align 8
  %numConstraints.addr = alloca i32, align 4
  %infoGlobal.addr = alloca ptr, align 8
  %iteration = alloca i32, align 4
  %numPoolConstraints = alloca i32, align 4
  %j = alloca i32, align 4
  %solveManifold = alloca ptr, align 8
  %numPoolConstraints20 = alloca i32, align 4
  %j23 = alloca i32, align 4
  %solveManifold27 = alloca ptr, align 8
  store ptr %this, ptr %this.addr, align 8
  store ptr %constraints, ptr %constraints.addr, align 8
  store i32 %numConstraints, ptr %numConstraints.addr, align 4
  store ptr %infoGlobal, ptr %infoGlobal.addr, align 8
  %this1 = load ptr, ptr %this.addr, align 8
  %0 = load ptr, ptr %infoGlobal.addr, align 8
  %m_splitImpulse = getelementptr inbounds %struct.b3ContactSolverInfoData, ptr %0, i32 0, i32 11
  %1 = load i32, ptr %m_splitImpulse, align 4
  %tobool = icmp ne i32 %1, 0
  br i1 %tobool, label %if.then, label %if.end44

if.then:                                          ; preds = %entry
  %2 = load ptr, ptr %infoGlobal.addr, align 8
  %m_solverMode = getelementptr inbounds %struct.b3ContactSolverInfoData, ptr %2, i32 0, i32 16
  %3 = load i32, ptr %m_solverMode, align 4
  %and = and i32 %3, 256
  %tobool2 = icmp ne i32 %and, 0
  br i1 %tobool2, label %if.then3, label %if.else

if.then3:                                         ; preds = %if.then
  store i32 0, ptr %iteration, align 4
  br label %for.cond

for.cond:                                         ; preds = %for.inc13, %if.then3
  %4 = load i32, ptr %iteration, align 4
  %5 = load ptr, ptr %infoGlobal.addr, align 8
  %m_numIterations = getelementptr inbounds %struct.b3ContactSolverInfoData, ptr %5, i32 0, i32 5
  %6 = load i32, ptr %m_numIterations, align 4
  %cmp = icmp slt i32 %4, %6
  br i1 %cmp, label %for.body, label %for.end15

for.body:                                         ; preds = %for.cond
  %m_tmpSolverContactConstraintPool = getelementptr inbounds %class.b3PgsJacobiSolver, ptr %this1, i32 0, i32 2
  %call = call noundef i32 @_ZNK20b3AlignedObjectArrayI18b3SolverConstraintE4sizeEv(ptr noundef nonnull align 8 dereferenceable(25) %m_tmpSolverContactConstraintPool)
  store i32 %call, ptr %numPoolConstraints, align 4
  store i32 0, ptr %j, align 4
  br label %for.cond4

for.cond4:                                        ; preds = %for.inc, %for.body
  %7 = load i32, ptr %j, align 4
  %8 = load i32, ptr %numPoolConstraints, align 4
  %cmp5 = icmp slt i32 %7, %8
  br i1 %cmp5, label %for.body6, label %for.end

for.body6:                                        ; preds = %for.cond4
  %m_tmpSolverContactConstraintPool7 = getelementptr inbounds %class.b3PgsJacobiSolver, ptr %this1, i32 0, i32 2
  %m_orderTmpConstraintPool = getelementptr inbounds %class.b3PgsJacobiSolver, ptr %this1, i32 0, i32 6
  %9 = load i32, ptr %j, align 4
  %call8 = call noundef nonnull align 4 dereferenceable(4) ptr @_ZN20b3AlignedObjectArrayIiEixEi(ptr noundef nonnull align 8 dereferenceable(25) %m_orderTmpConstraintPool, i32 noundef %9)
  %10 = load i32, ptr %call8, align 4
  %call9 = call noundef nonnull align 16 dereferenceable(160) ptr @_ZN20b3AlignedObjectArrayI18b3SolverConstraintEixEi(ptr noundef nonnull align 8 dereferenceable(25) %m_tmpSolverContactConstraintPool7, i32 noundef %10)
  store ptr %call9, ptr %solveManifold, align 8
  %m_tmpSolverBodyPool = getelementptr inbounds %class.b3PgsJacobiSolver, ptr %this1, i32 0, i32 1
  %11 = load ptr, ptr %solveManifold, align 8
  %m_solverBodyIdA = getelementptr inbounds %struct.b3SolverConstraint, ptr %11, i32 0, i32 19
  %12 = load i32, ptr %m_solverBodyIdA, align 16
  %call10 = call noundef nonnull align 16 dereferenceable(228) ptr @_ZN20b3AlignedObjectArrayI12b3SolverBodyEixEi(ptr noundef nonnull align 8 dereferenceable(25) %m_tmpSolverBodyPool, i32 noundef %12)
  %m_tmpSolverBodyPool11 = getelementptr inbounds %class.b3PgsJacobiSolver, ptr %this1, i32 0, i32 1
  %13 = load ptr, ptr %solveManifold, align 8
  %m_solverBodyIdB = getelementptr inbounds %struct.b3SolverConstraint, ptr %13, i32 0, i32 20
  %14 = load i32, ptr %m_solverBodyIdB, align 4
  %call12 = call noundef nonnull align 16 dereferenceable(228) ptr @_ZN20b3AlignedObjectArrayI12b3SolverBodyEixEi(ptr noundef nonnull align 8 dereferenceable(25) %m_tmpSolverBodyPool11, i32 noundef %14)
  %15 = load ptr, ptr %solveManifold, align 8
  call void @_ZN17b3PgsJacobiSolver27resolveSplitPenetrationSIMDER12b3SolverBodyS1_RK18b3SolverConstraint(ptr noundef nonnull align 8 dereferenceable(448) %this1, ptr noundef nonnull align 16 dereferenceable(228) %call10, ptr noundef nonnull align 16 dereferenceable(228) %call12, ptr noundef nonnull align 16 dereferenceable(160) %15)
  br label %for.inc

for.inc:                                          ; preds = %for.body6
  %16 = load i32, ptr %j, align 4
  %inc = add nsw i32 %16, 1
  store i32 %inc, ptr %j, align 4
  br label %for.cond4, !llvm.loop !38

for.end:                                          ; preds = %for.cond4
  br label %for.inc13

for.inc13:                                        ; preds = %for.end
  %17 = load i32, ptr %iteration, align 4
  %inc14 = add nsw i32 %17, 1
  store i32 %inc14, ptr %iteration, align 4
  br label %for.cond, !llvm.loop !39

for.end15:                                        ; preds = %for.cond
  br label %if.end

if.else:                                          ; preds = %if.then
  store i32 0, ptr %iteration, align 4
  br label %for.cond16

for.cond16:                                       ; preds = %for.inc41, %if.else
  %18 = load i32, ptr %iteration, align 4
  %19 = load ptr, ptr %infoGlobal.addr, align 8
  %m_numIterations17 = getelementptr inbounds %struct.b3ContactSolverInfoData, ptr %19, i32 0, i32 5
  %20 = load i32, ptr %m_numIterations17, align 4
  %cmp18 = icmp slt i32 %18, %20
  br i1 %cmp18, label %for.body19, label %for.end43

for.body19:                                       ; preds = %for.cond16
  %m_tmpSolverContactConstraintPool21 = getelementptr inbounds %class.b3PgsJacobiSolver, ptr %this1, i32 0, i32 2
  %call22 = call noundef i32 @_ZNK20b3AlignedObjectArrayI18b3SolverConstraintE4sizeEv(ptr noundef nonnull align 8 dereferenceable(25) %m_tmpSolverContactConstraintPool21)
  store i32 %call22, ptr %numPoolConstraints20, align 4
  store i32 0, ptr %j23, align 4
  br label %for.cond24

for.cond24:                                       ; preds = %for.inc38, %for.body19
  %21 = load i32, ptr %j23, align 4
  %22 = load i32, ptr %numPoolConstraints20, align 4
  %cmp25 = icmp slt i32 %21, %22
  br i1 %cmp25, label %for.body26, label %for.end40

for.body26:                                       ; preds = %for.cond24
  %m_tmpSolverContactConstraintPool28 = getelementptr inbounds %class.b3PgsJacobiSolver, ptr %this1, i32 0, i32 2
  %m_orderTmpConstraintPool29 = getelementptr inbounds %class.b3PgsJacobiSolver, ptr %this1, i32 0, i32 6
  %23 = load i32, ptr %j23, align 4
  %call30 = call noundef nonnull align 4 dereferenceable(4) ptr @_ZN20b3AlignedObjectArrayIiEixEi(ptr noundef nonnull align 8 dereferenceable(25) %m_orderTmpConstraintPool29, i32 noundef %23)
  %24 = load i32, ptr %call30, align 4
  %call31 = call noundef nonnull align 16 dereferenceable(160) ptr @_ZN20b3AlignedObjectArrayI18b3SolverConstraintEixEi(ptr noundef nonnull align 8 dereferenceable(25) %m_tmpSolverContactConstraintPool28, i32 noundef %24)
  store ptr %call31, ptr %solveManifold27, align 8
  %m_tmpSolverBodyPool32 = getelementptr inbounds %class.b3PgsJacobiSolver, ptr %this1, i32 0, i32 1
  %25 = load ptr, ptr %solveManifold27, align 8
  %m_solverBodyIdA33 = getelementptr inbounds %struct.b3SolverConstraint, ptr %25, i32 0, i32 19
  %26 = load i32, ptr %m_solverBodyIdA33, align 16
  %call34 = call noundef nonnull align 16 dereferenceable(228) ptr @_ZN20b3AlignedObjectArrayI12b3SolverBodyEixEi(ptr noundef nonnull align 8 dereferenceable(25) %m_tmpSolverBodyPool32, i32 noundef %26)
  %m_tmpSolverBodyPool35 = getelementptr inbounds %class.b3PgsJacobiSolver, ptr %this1, i32 0, i32 1
  %27 = load ptr, ptr %solveManifold27, align 8
  %m_solverBodyIdB36 = getelementptr inbounds %struct.b3SolverConstraint, ptr %27, i32 0, i32 20
  %28 = load i32, ptr %m_solverBodyIdB36, align 4
  %call37 = call noundef nonnull align 16 dereferenceable(228) ptr @_ZN20b3AlignedObjectArrayI12b3SolverBodyEixEi(ptr noundef nonnull align 8 dereferenceable(25) %m_tmpSolverBodyPool35, i32 noundef %28)
  %29 = load ptr, ptr %solveManifold27, align 8
  call void @_ZN17b3PgsJacobiSolver43resolveSplitPenetrationImpulseCacheFriendlyER12b3SolverBodyS1_RK18b3SolverConstraint(ptr noundef nonnull align 8 dereferenceable(448) %this1, ptr noundef nonnull align 16 dereferenceable(228) %call34, ptr noundef nonnull align 16 dereferenceable(228) %call37, ptr noundef nonnull align 16 dereferenceable(160) %29)
  br label %for.inc38

for.inc38:                                        ; preds = %for.body26
  %30 = load i32, ptr %j23, align 4
  %inc39 = add nsw i32 %30, 1
  store i32 %inc39, ptr %j23, align 4
  br label %for.cond24, !llvm.loop !40

for.end40:                                        ; preds = %for.cond24
  br label %for.inc41

for.inc41:                                        ; preds = %for.end40
  %31 = load i32, ptr %iteration, align 4
  %inc42 = add nsw i32 %31, 1
  store i32 %inc42, ptr %iteration, align 4
  br label %for.cond16, !llvm.loop !41

for.end43:                                        ; preds = %for.cond16
  br label %if.end

if.end:                                           ; preds = %for.end43, %for.end15
  br label %if.end44

if.end44:                                         ; preds = %if.end, %entry
  ret void
}