; Function Attrs: mustprogress nofree norecurse nosync nounwind memory(readwrite, inaccessiblemem: none) uwtable
define dso_local void @_ZN17b3PgsJacobiSolver45solveGroupCacheFriendlySplitImpulseIterationsEPP17b3TypedConstraintiRK19b3ContactSolverInfo(ptr nocapture noundef nonnull align 8 dereferenceable(448) %this, ptr nocapture readnone %constraints, i32 %numConstraints, ptr nocapture noundef nonnull readonly align 4 dereferenceable(84) %infoGlobal) unnamed_addr #13 align 2 {
entry:
  %m_splitImpulse = getelementptr inbounds i8, ptr %infoGlobal, i64 44
  %0 = load i32, ptr %m_splitImpulse, align 4
  %tobool.not = icmp eq i32 %0, 0
  br i1 %tobool.not, label %if.end44, label %if.then

if.then:                                          ; preds = %entry
  %m_solverMode = getelementptr inbounds i8, ptr %infoGlobal, i64 64
  %1 = load i32, ptr %m_solverMode, align 4
  %and = and i32 %1, 256
  %tobool2.not = icmp eq i32 %and, 0
  %m_numIterations17 = getelementptr inbounds i8, ptr %infoGlobal, i64 20
  %2 = load i32, ptr %m_numIterations17, align 4
  %cmp1844 = icmp sgt i32 %2, 0
  br i1 %tobool2.not, label %for.cond16.preheader, label %for.cond.preheader

for.cond.preheader:                               ; preds = %if.then
  br i1 %cmp1844, label %for.body.lr.ph, label %if.end44

for.body.lr.ph:                                   ; preds = %for.cond.preheader
  %m_size.i = getelementptr inbounds i8, ptr %this, i64 44
  %m_data.i = getelementptr inbounds i8, ptr %this, i64 184
  %m_data.i15 = getelementptr inbounds i8, ptr %this, i64 56
  %m_data.i18 = getelementptr inbounds i8, ptr %this, i64 24
  %3 = load i32, ptr %m_size.i, align 4
  %4 = icmp sgt i32 %3, 0
  br i1 %4, label %for.body, label %if.end44

for.cond16.preheader:                             ; preds = %if.then
  br i1 %cmp1844, label %for.body19.lr.ph, label %if.end44

for.body19.lr.ph:                                 ; preds = %for.cond16.preheader
  %m_size.i24 = getelementptr inbounds i8, ptr %this, i64 44
  %m_data.i25 = getelementptr inbounds i8, ptr %this, i64 184
  %m_data.i28 = getelementptr inbounds i8, ptr %this, i64 56
  %m_data.i31 = getelementptr inbounds i8, ptr %this, i64 24
  %5 = load i32, ptr %m_size.i24, align 4
  %6 = icmp sgt i32 %5, 0
  br i1 %6, label %for.body19, label %if.end44

for.bodythread-pre-split:                         ; preds = %for.inc13
  %.pr = load i32, ptr %m_size.i, align 4
  br label %for.body

for.body:                                         ; preds = %for.body.lr.ph, %for.bodythread-pre-split
  %7 = phi i32 [ %.pr, %for.bodythread-pre-split ], [ %3, %for.body.lr.ph ]
  %8 = phi i32 [ %15, %for.bodythread-pre-split ], [ %2, %for.body.lr.ph ]
  %iteration.041 = phi i32 [ %inc14, %for.bodythread-pre-split ], [ 0, %for.body.lr.ph ]
  %cmp538 = icmp sgt i32 %7, 0
  br i1 %cmp538, label %for.body6.preheader, label %for.inc13

for.body6.preheader:                              ; preds = %for.body
  %wide.trip.count = zext nneg i32 %7 to i64
  br label %for.body6

for.body6:                                        ; preds = %for.body6.preheader, %for.body6
  %indvars.iv = phi i64 [ 0, %for.body6.preheader ], [ %indvars.iv.next, %for.body6 ]
  %9 = load ptr, ptr %m_data.i, align 8
  %arrayidx.i = getelementptr inbounds i32, ptr %9, i64 %indvars.iv
  %10 = load i32, ptr %arrayidx.i, align 4
  %11 = load ptr, ptr %m_data.i15, align 8
  %idxprom.i16 = sext i32 %10 to i64
  %arrayidx.i17 = getelementptr inbounds %struct.b3SolverConstraint, ptr %11, i64 %idxprom.i16
  %m_solverBodyIdA = getelementptr inbounds i8, ptr %arrayidx.i17, i64 144
  %12 = load i32, ptr %m_solverBodyIdA, align 16
  %13 = load ptr, ptr %m_data.i18, align 8
  %idxprom.i19 = sext i32 %12 to i64
  %arrayidx.i20 = getelementptr inbounds %struct.b3SolverBody, ptr %13, i64 %idxprom.i19
  %m_solverBodyIdB = getelementptr inbounds i8, ptr %arrayidx.i17, i64 148
  %14 = load i32, ptr %m_solverBodyIdB, align 4
  %idxprom.i22 = sext i32 %14 to i64
  %arrayidx.i23 = getelementptr inbounds %struct.b3SolverBody, ptr %13, i64 %idxprom.i22
  tail call void @_ZN17b3PgsJacobiSolver43resolveSplitPenetrationImpulseCacheFriendlyER12b3SolverBodyS1_RK18b3SolverConstraint(ptr noundef nonnull align 8 dereferenceable(448) %this, ptr noundef nonnull align 16 dereferenceable(228) %arrayidx.i20, ptr noundef nonnull align 16 dereferenceable(228) %arrayidx.i23, ptr noundef nonnull align 16 dereferenceable(160) %arrayidx.i17)
  %indvars.iv.next = add nuw nsw i64 %indvars.iv, 1
  %exitcond.not = icmp eq i64 %indvars.iv.next, %wide.trip.count
  br i1 %exitcond.not, label %for.inc13.loopexit, label %for.body6, !llvm.loop !38

for.inc13.loopexit:                               ; preds = %for.body6
  %.pre = load i32, ptr %m_numIterations17, align 4
  br label %for.inc13

for.inc13:                                        ; preds = %for.inc13.loopexit, %for.body
  %15 = phi i32 [ %.pre, %for.inc13.loopexit ], [ %8, %for.body ]
  %inc14 = add nuw nsw i32 %iteration.041, 1
  %cmp = icmp slt i32 %inc14, %15
  br i1 %cmp, label %for.bodythread-pre-split, label %if.end44, !llvm.loop !39

for.body19thread-pre-split:                       ; preds = %for.inc41
  %.pr56 = load i32, ptr %m_size.i24, align 4
  br label %for.body19

for.body19:                                       ; preds = %for.body19.lr.ph, %for.body19thread-pre-split
  %16 = phi i32 [ %.pr56, %for.body19thread-pre-split ], [ %5, %for.body19.lr.ph ]
  %17 = phi i32 [ %24, %for.body19thread-pre-split ], [ %2, %for.body19.lr.ph ]
  %iteration.145 = phi i32 [ %inc42, %for.body19thread-pre-split ], [ 0, %for.body19.lr.ph ]
  %cmp2542 = icmp sgt i32 %16, 0
  br i1 %cmp2542, label %for.body26.preheader, label %for.inc41

for.body26.preheader:                             ; preds = %for.body19
  %wide.trip.count53 = zext nneg i32 %16 to i64
  br label %for.body26

for.body26:                                       ; preds = %for.body26.preheader, %for.body26
  %indvars.iv50 = phi i64 [ 0, %for.body26.preheader ], [ %indvars.iv.next51, %for.body26 ]
  %18 = load ptr, ptr %m_data.i25, align 8
  %arrayidx.i27 = getelementptr inbounds i32, ptr %18, i64 %indvars.iv50
  %19 = load i32, ptr %arrayidx.i27, align 4
  %20 = load ptr, ptr %m_data.i28, align 8
  %idxprom.i29 = sext i32 %19 to i64
  %arrayidx.i30 = getelementptr inbounds %struct.b3SolverConstraint, ptr %20, i64 %idxprom.i29
  %m_solverBodyIdA33 = getelementptr inbounds i8, ptr %arrayidx.i30, i64 144
  %21 = load i32, ptr %m_solverBodyIdA33, align 16
  %22 = load ptr, ptr %m_data.i31, align 8
  %idxprom.i32 = sext i32 %21 to i64
  %arrayidx.i33 = getelementptr inbounds %struct.b3SolverBody, ptr %22, i64 %idxprom.i32
  %m_solverBodyIdB36 = getelementptr inbounds i8, ptr %arrayidx.i30, i64 148
  %23 = load i32, ptr %m_solverBodyIdB36, align 4
  %idxprom.i35 = sext i32 %23 to i64
  %arrayidx.i36 = getelementptr inbounds %struct.b3SolverBody, ptr %22, i64 %idxprom.i35
  tail call void @_ZN17b3PgsJacobiSolver43resolveSplitPenetrationImpulseCacheFriendlyER12b3SolverBodyS1_RK18b3SolverConstraint(ptr noundef nonnull align 8 dereferenceable(448) %this, ptr noundef nonnull align 16 dereferenceable(228) %arrayidx.i33, ptr noundef nonnull align 16 dereferenceable(228) %arrayidx.i36, ptr noundef nonnull align 16 dereferenceable(160) %arrayidx.i30)
  %indvars.iv.next51 = add nuw nsw i64 %indvars.iv50, 1
  %exitcond54.not = icmp eq i64 %indvars.iv.next51, %wide.trip.count53
  br i1 %exitcond54.not, label %for.inc41.loopexit, label %for.body26, !llvm.loop !41

for.inc41.loopexit:                               ; preds = %for.body26
  %.pre55 = load i32, ptr %m_numIterations17, align 4
  br label %for.inc41

for.inc41:                                        ; preds = %for.inc41.loopexit, %for.body19
  %24 = phi i32 [ %.pre55, %for.inc41.loopexit ], [ %17, %for.body19 ]
  %inc42 = add nuw nsw i32 %iteration.145, 1
  %cmp18 = icmp slt i32 %inc42, %24
  br i1 %cmp18, label %for.body19thread-pre-split, label %if.end44, !llvm.loop !42

if.end44:                                         ; preds = %for.inc13, %for.inc41, %for.body19.lr.ph, %for.body.lr.ph, %for.cond.preheader, %for.cond16.preheader, %entry
  ret void
}